target datalayout = "e-m:e-p270:32:32-p271:32:32-p272:64:64-i64:64-i128:128-f80:128-n8:16:32:64-S128"
target triple = "x86_64-pc-linux-gnu"

%struct.RelFileLocator = type { i32, i32, i32 }
%struct.gistxlogDelete = type { i32, i16, i8, [0 x i16] }
%struct.RelationData = type { %struct.RelFileLocator, ptr, i32, i32, i8, i8, i8, i8, i8, i32, i32, i32, i32, ptr, ptr, i32, %struct.LockInfoData, ptr, ptr, ptr, ptr, ptr, i8, ptr, ptr, ptr, ptr, ptr, ptr, i32, ptr, i8, ptr, ptr, i32, i8, i32, ptr, i8, ptr, ptr, ptr, ptr, ptr, ptr, ptr, i32, ptr, ptr, ptr, ptr, ptr, ptr, ptr, ptr, ptr, ptr, ptr, ptr, ptr, ptr, ptr, ptr, ptr, ptr, ptr, i32, i8, ptr }
%struct.LockInfoData = type { %struct.LockRelId }
%struct.LockRelId = type { i32, i32 }
%struct.FormData_pg_class = type { i32, %struct.nameData, i32, i32, i32, i32, i32, i32, i32, i32, float, i32, i32, i8, i8, i8, i8, i16, i16, i8, i8, i8, i8, i8, i8, i8, i8, i32, i32, i32 }
%struct.nameData = type { [64 x i8] }
%struct.StdRdOptions = type { i32, i32, i32, %struct.AutoVacOpts, i8, i32, i32, i8, double }
%struct.AutoVacOpts = type { i8, i32, i32, i32, i32, i32, i32, i32, i32, i32, i32, i32, i32, double, double, double, double }

@wal_level = external global i32, align 4

; Function Attrs: nounwind uwtable
define dso_local i64 @gistXLogDelete(i32 noundef %0, ptr noundef %1, i32 noundef %2, i32 noundef %3, ptr noundef %4) #0 {
  %6 = alloca i32, align 4
  %7 = alloca ptr, align 8
  %8 = alloca i32, align 4
  %9 = alloca i32, align 4
  %10 = alloca ptr, align 8
  %11 = alloca %struct.gistxlogDelete, align 4
  %12 = alloca i64, align 8
  store i32 %0, ptr %6, align 4
  store ptr %1, ptr %7, align 8
  store i32 %2, ptr %8, align 4
  store i32 %3, ptr %9, align 4
  store ptr %4, ptr %10, align 8
  call void @llvm.lifetime.start.p0(i64 8, ptr %11) #6
  call void @llvm.lifetime.start.p0(i64 8, ptr %12) #6
  %13 = load i32, ptr @wal_level, align 4
  %14 = icmp sge i32 %13, 2
  br i1 %14, label %15, label %74

15:                                               ; preds = %5
  %16 = load ptr, ptr %10, align 8
  %17 = getelementptr inbounds nuw %struct.RelationData, ptr %16, i32 0, i32 13
  %18 = load ptr, ptr %17, align 8
  %19 = getelementptr inbounds nuw %struct.FormData_pg_class, ptr %18, i32 0, i32 15
  %20 = load i8, ptr %19, align 2
  %21 = sext i8 %20 to i32
  %22 = icmp eq i32 %21, 112
  br i1 %22, label %23, label %74

23:                                               ; preds = %15
  %24 = load i32, ptr @wal_level, align 4
  %25 = icmp sge i32 %24, 1
  br i1 %25, label %36, label %26

26:                                               ; preds = %23
  %27 = load ptr, ptr %10, align 8
  %28 = getelementptr inbounds nuw %struct.RelationData, ptr %27, i32 0, i32 9
  %29 = load i32, ptr %28, align 8
  %30 = icmp eq i32 %29, 0
  br i1 %30, label %31, label %74

31:                                               ; preds = %26
  %32 = load ptr, ptr %10, align 8
  %33 = getelementptr inbounds nuw %struct.RelationData, ptr %32, i32 0, i32 11
  %34 = load i32, ptr %33, align 8
  %35 = icmp eq i32 %34, 0
  br i1 %35, label %36, label %74

36:                                               ; preds = %31, %23
  %37 = load ptr, ptr %10, align 8
  %38 = call zeroext i1 @IsCatalogRelation(ptr noundef %37)
  br i1 %38, label %72, label %39

39:                                               ; preds = %36
  %40 = load ptr, ptr %10, align 8
  %41 = getelementptr inbounds nuw %struct.RelationData, ptr %40, i32 0, i32 45
  %42 = load ptr, ptr %41, align 8
  %43 = icmp ne ptr %42, null
  br i1 %43, label %44, label %68

44:                                               ; preds = %39
  %45 = load ptr, ptr %10, align 8
  %46 = getelementptr inbounds nuw %struct.RelationData, ptr %45, i32 0, i32 13
  %47 = load ptr, ptr %46, align 8
  %48 = getelementptr inbounds nuw %struct.FormData_pg_class, ptr %47, i32 0, i32 16
  %49 = load i8, ptr %48, align 1
  %50 = sext i8 %49 to i32
  %51 = icmp eq i32 %50, 114
  br i1 %51, label %60, label %52

52:                                               ; preds = %44
  %53 = load ptr, ptr %10, align 8
  %54 = getelementptr inbounds nuw %struct.RelationData, ptr %53, i32 0, i32 13
  %55 = load ptr, ptr %54, align 8
  %56 = getelementptr inbounds nuw %struct.FormData_pg_class, ptr %55, i32 0, i32 16
  %57 = load i8, ptr %56, align 1
  %58 = sext i8 %57 to i32
  %59 = icmp eq i32 %58, 109
  br i1 %59, label %60, label %68

60:                                               ; preds = %52, %44
  %61 = load ptr, ptr %10, align 8
  %62 = getelementptr inbounds nuw %struct.RelationData, ptr %61, i32 0, i32 45
  %63 = load ptr, ptr %62, align 8
  %64 = getelementptr inbounds nuw %struct.StdRdOptions, ptr %63, i32 0, i32 4
  %65 = load i8, ptr %64, align 8, !range !6, !noundef !7
  %66 = trunc i8 %65 to i1
  %67 = zext i1 %66 to i32
  br label %69

68:                                               ; preds = %52, %39
  br label %69

69:                                               ; preds = %68, %60
  %70 = phi i32 [ %67, %60 ], [ 0, %68 ]
  %71 = icmp ne i32 %70, 0
  br label %72

72:                                               ; preds = %69, %36
  %73 = phi i1 [ true, %36 ], [ %71, %69 ]
  br label %74

74:                                               ; preds = %72, %31, %26, %15, %5
  %75 = phi i1 [ false, %31 ], [ false, %26 ], [ false, %15 ], [ false, %5 ], [ %73, %72 ]
  %76 = getelementptr inbounds nuw %struct.gistxlogDelete, ptr %11, i32 0, i32 2
  %77 = zext i1 %75 to i8
  store i8 %77, ptr %76, align 2
  %78 = load i32, ptr %9, align 4
  %79 = getelementptr inbounds nuw %struct.gistxlogDelete, ptr %11, i32 0, i32 0
  store i32 %78, ptr %79, align 4
  %80 = load i32, ptr %8, align 4
  %81 = trunc i32 %80 to i16
  %82 = getelementptr inbounds nuw %struct.gistxlogDelete, ptr %11, i32 0, i32 1
  store i16 %81, ptr %82, align 4
  call void @XLogBeginInsert()
  call void @XLogRegisterData(ptr noundef %11, i32 noundef 8)
  %83 = load ptr, ptr %7, align 8
  %84 = load i32, ptr %8, align 4
  %85 = sext i32 %84 to i64
  %86 = mul i64 %85, 2
  %87 = trunc i64 %86 to i32
  call void @XLogRegisterData(ptr noundef %83, i32 noundef %87)
  %88 = load i32, ptr %6, align 4
  call void @XLogRegisterBuffer(i8 noundef zeroext 0, i32 noundef %88, i8 noundef zeroext 8)
  %89 = call i64 @XLogInsert(i8 noundef zeroext 14, i8 noundef zeroext 16)
  store i64 %89, ptr %12, align 8
  %90 = load i64, ptr %12, align 8
  call void @llvm.lifetime.end.p0(i64 8, ptr %12) #6
  call void @llvm.lifetime.end.p0(i64 8, ptr %11) #6
  ret i64 %90
}