; Function Attrs: nounwind uwtable
define dso_local i64 @gistXLogDelete(i32 noundef %0, ptr noundef %1, i32 noundef %2, i32 noundef %3, ptr noundef %4) local_unnamed_addr #0 {
  %6 = alloca %struct.gistxlogDelete, align 4
  call void @llvm.lifetime.start.p0(i64 8, ptr nonnull %6) #6
  %7 = load i32, ptr @wal_level, align 4
  %8 = icmp sgt i32 %7, 1
  br i1 %8, label %9, label %27

9:                                                ; preds = %5
  %10 = getelementptr inbounds nuw i8, ptr %4, i64 56
  %11 = load ptr, ptr %10, align 8
  %12 = getelementptr inbounds nuw i8, ptr %11, i64 114
  %13 = load i8, ptr %12, align 2
  %14 = icmp eq i8 %13, 112
  br i1 %14, label %15, label %27

15:                                               ; preds = %9
  %16 = tail call zeroext i1 @IsCatalogRelation(ptr noundef nonnull %4) #6
  br i1 %16, label %27, label %17

17:                                               ; preds = %15
  %18 = getelementptr inbounds nuw i8, ptr %4, i64 304
  %19 = load ptr, ptr %18, align 8
  %.not = icmp eq ptr %19, null
  br i1 %.not, label %27, label %20

20:                                               ; preds = %17
  %21 = load ptr, ptr %10, align 8
  %22 = getelementptr inbounds nuw i8, ptr %21, i64 115
  %23 = load i8, ptr %22, align 1
  switch i8 %23, label %27 [
    i8 114, label %24
    i8 109, label %24
  ]

24:                                               ; preds = %20, %20
  %25 = getelementptr inbounds nuw i8, ptr %19, i64 104
  %26 = load i8, ptr %25, align 8, !range !6, !noundef !7
  br label %27

27:                                               ; preds = %24, %17, %20, %15, %9, %5
  %28 = phi i8 [ 0, %9 ], [ 0, %5 ], [ 1, %15 ], [ %26, %24 ], [ 0, %17 ], [ 0, %20 ]
  %29 = getelementptr inbounds nuw i8, ptr %6, i64 6
  store i8 %28, ptr %29, align 2
  store i32 %3, ptr %6, align 4
  %30 = trunc i32 %2 to i16
  %31 = getelementptr inbounds nuw i8, ptr %6, i64 4
  store i16 %30, ptr %31, align 4
  tail call void @XLogBeginInsert() #6
  call void @XLogRegisterData(ptr noundef nonnull %6, i32 noundef 8) #6
  %32 = shl i32 %2, 1
  call void @XLogRegisterData(ptr noundef %1, i32 noundef %32) #6
  call void @XLogRegisterBuffer(i8 noundef zeroext 0, i32 noundef %0, i8 noundef zeroext 8) #6
  %33 = call i64 @XLogInsert(i8 noundef zeroext 14, i8 noundef zeroext 16) #6
  call void @llvm.lifetime.end.p0(i64 8, ptr nonnull %6) #6
  ret i64 %33
}